; Function Attrs: nounwind uwtable
define internal void @typevartuple_dealloc(ptr noundef %0) #0 {
  %2 = getelementptr i8, ptr %0, i64 8
  %.val14 = load ptr, ptr %2, align 8, !tbaa !18
  %3 = getelementptr i8, ptr %0, i64 -16
  %4 = getelementptr i8, ptr %0, i64 -8
  %.val.i = load i64, ptr %4, align 8, !tbaa !113
  %5 = and i64 %.val.i, -4
  %6 = inttoptr i64 %5 to ptr
  %.val9.i = load i64, ptr %3, align 8, !tbaa !114
  %7 = and i64 %.val9.i, -4
  %8 = inttoptr i64 %7 to ptr
  %9 = load i64, ptr %6, align 8, !tbaa !114
  %10 = and i64 %9, 3
  %11 = or disjoint i64 %10, %7
  store i64 %11, ptr %6, align 8, !tbaa !114
  %12 = getelementptr inbounds nuw i8, ptr %8, i64 8
  %13 = load i64, ptr %12, align 8, !tbaa !113
  %14 = and i64 %13, 3
  %15 = or disjoint i64 %14, %5
  store i64 %15, ptr %12, align 8, !tbaa !113
  store i64 0, ptr %3, align 8, !tbaa !114
  %16 = load i64, ptr %4, align 8, !tbaa !113
  %17 = and i64 %16, 1
  store i64 %17, ptr %4, align 8, !tbaa !113
  %18 = getelementptr inbounds nuw i8, ptr %0, i64 16
  %19 = load ptr, ptr %18, align 8, !tbaa !109
  %20 = load i32, ptr %19, align 8, !tbaa !27
  %.not.i11 = icmp sgt i32 %20, -1
  br i1 %.not.i11, label %21, label %Py_DECREF.exit12

21:                                               ; preds = %1
  %22 = add nsw i32 %20, -1
  store i32 %22, ptr %19, align 8, !tbaa !27
  %23 = icmp eq i32 %22, 0
  br i1 %23, label %24, label %Py_DECREF.exit12

24:                                               ; preds = %21
  tail call void @_Py_Dealloc(ptr noundef nonnull %19) #8
  br label %Py_DECREF.exit12

Py_DECREF.exit12:                                 ; preds = %1, %21, %24
  %25 = getelementptr inbounds nuw i8, ptr %0, i64 24
  %26 = load ptr, ptr %25, align 8, !tbaa !111
  %.not.i15 = icmp eq ptr %26, null
  br i1 %.not.i15, label %Py_XDECREF.exit, label %27

27:                                               ; preds = %Py_DECREF.exit12
  %28 = load i32, ptr %26, align 8, !tbaa !27
  %.not.i.i = icmp sgt i32 %28, -1
  br i1 %.not.i.i, label %29, label %Py_XDECREF.exit

29:                                               ; preds = %27
  %30 = add nsw i32 %28, -1
  store i32 %30, ptr %26, align 8, !tbaa !27
  %31 = icmp eq i32 %30, 0
  br i1 %31, label %32, label %Py_XDECREF.exit

32:                                               ; preds = %29
  tail call void @_Py_Dealloc(ptr noundef nonnull %26) #8
  br label %Py_XDECREF.exit

Py_XDECREF.exit:                                  ; preds = %Py_DECREF.exit12, %27, %29, %32
  %33 = getelementptr inbounds nuw i8, ptr %0, i64 32
  %34 = load ptr, ptr %33, align 8, !tbaa !112
  %.not.i16 = icmp eq ptr %34, null
  br i1 %.not.i16, label %Py_XDECREF.exit18, label %35

35:                                               ; preds = %Py_XDECREF.exit
  %36 = load i32, ptr %34, align 8, !tbaa !27
  %.not.i.i17 = icmp sgt i32 %36, -1
  br i1 %.not.i.i17, label %37, label %Py_XDECREF.exit18

37:                                               ; preds = %35
  %38 = add nsw i32 %36, -1
  store i32 %38, ptr %34, align 8, !tbaa !27
  %39 = icmp eq i32 %38, 0
  br i1 %39, label %40, label %Py_XDECREF.exit18

40:                                               ; preds = %37
  tail call void @_Py_Dealloc(ptr noundef nonnull %34) #8
  br label %Py_XDECREF.exit18

Py_XDECREF.exit18:                                ; preds = %Py_XDECREF.exit, %35, %37, %40
  tail call void @PyObject_ClearManagedDict(ptr noundef nonnull %0) #8
  tail call void @PyObject_ClearWeakRefs(ptr noundef nonnull %0) #8
  %.val = load ptr, ptr %2, align 8, !tbaa !18
  %41 = getelementptr inbounds nuw i8, ptr %.val, i64 320
  %42 = load ptr, ptr %41, align 8, !tbaa !116
  tail call void %42(ptr noundef nonnull %0) #8
  %43 = load i32, ptr %.val14, align 8, !tbaa !27
  %.not.i = icmp sgt i32 %43, -1
  br i1 %.not.i, label %44, label %Py_DECREF.exit

44:                                               ; preds = %Py_XDECREF.exit18
  %45 = add nsw i32 %43, -1
  store i32 %45, ptr %.val14, align 8, !tbaa !27
  %46 = icmp eq i32 %45, 0
  br i1 %46, label %47, label %Py_DECREF.exit

47:                                               ; preds = %44
  tail call void @_Py_Dealloc(ptr noundef nonnull %.val14) #8
  br label %Py_DECREF.exit

Py_DECREF.exit:                                   ; preds = %Py_XDECREF.exit18, %44, %47
  ret void
}